target datalayout = "e-m:e-p270:32:32-p271:32:32-p272:64:64-i64:64-i128:128-f80:128-n8:16:32:64-S128"
target triple = "x86_64-pc-linux-gnu"

@.str.294 = private unnamed_addr constant [31 x i8] c"Executable and Linkable Format\00", align 1
@.str.295 = private unnamed_addr constant [4 x i8] c"ELF\00", align 1
@.str.296 = private unnamed_addr constant [4 x i8] c"elf\00", align 1
@proto_elf = internal global i32 0, align 4
@elf_handle = internal global ptr null, align 8
@.str.297 = private unnamed_addr constant [8 x i8] c"version\00", align 1
@.str.298 = private unnamed_addr constant [23 x i8] c"ELF version: 4.1 DRAFT\00", align 1
@.str.299 = private unnamed_addr constant [52 x i8] c"Version of file-format supported by this dissector.\00", align 1

; Function Attrs: null_pointer_is_valid sspstrong uwtable
define hidden void @proto_register_elf() #0 {
  %1 = alloca ptr, align 8
  %2 = alloca ptr, align 8
  call void @llvm.lifetime.start.p0(i64 8, ptr %1) #8
  call void @llvm.lifetime.start.p0(i64 8, ptr %2) #8
  %3 = call i32 @proto_register_protocol(ptr noundef @.str.294, ptr noundef @.str.295, ptr noundef @.str.296)
  store i32 %3, ptr @proto_elf, align 4
  %4 = load i32, ptr @proto_elf, align 4
  call void @proto_register_field_array(i32 noundef %4, ptr noundef @proto_register_elf.hf, i32 noundef 133)
  call void @proto_register_subtree_array(ptr noundef @proto_register_elf.ett, i32 noundef 19)
  %5 = load i32, ptr @proto_elf, align 4
  %6 = call ptr @register_dissector(ptr noundef @.str.296, ptr noundef @dissect_elf, i32 noundef %5)
  store ptr %6, ptr @elf_handle, align 8
  %7 = load i32, ptr @proto_elf, align 4
  %8 = call ptr @prefs_register_protocol(i32 noundef %7, ptr noundef null)
  store ptr %8, ptr %1, align 8
  %9 = load ptr, ptr %1, align 8
  call void @prefs_register_static_text_preference(ptr noundef %9, ptr noundef @.str.297, ptr noundef @.str.298, ptr noundef @.str.299)
  %10 = load i32, ptr @proto_elf, align 4
  %11 = call ptr @expert_register_protocol(i32 noundef %10)
  store ptr %11, ptr %2, align 8
  %12 = load ptr, ptr %2, align 8
  call void @expert_register_field_array(ptr noundef %12, ptr noundef @proto_register_elf.ei, i32 noundef 4)
  call void @llvm.lifetime.end.p0(i64 8, ptr %2) #8
  call void @llvm.lifetime.end.p0(i64 8, ptr %1) #8
  ret void
}