; Function Attrs: null_pointer_is_valid sspstrong uwtable
define hidden void @proto_register_elf() local_unnamed_addr #0 {
  %1 = tail call i32 @proto_register_protocol(ptr noundef nonnull @.str.294, ptr noundef nonnull @.str.295, ptr noundef nonnull @.str.296)
  store i32 %1, ptr @proto_elf, align 4
  tail call void @proto_register_field_array(i32 noundef %1, ptr noundef nonnull @proto_register_elf.hf, i32 noundef 133)
  tail call void @proto_register_subtree_array(ptr noundef nonnull @proto_register_elf.ett, i32 noundef 19)
  %2 = load i32, ptr @proto_elf, align 4
  %3 = tail call ptr @register_dissector(ptr noundef nonnull @.str.296, ptr noundef nonnull @dissect_elf, i32 noundef %2)
  store ptr %3, ptr @elf_handle, align 8
  %4 = load i32, ptr @proto_elf, align 4
  %5 = tail call ptr @prefs_register_protocol(i32 noundef %4, ptr noundef null)
  tail call void @prefs_register_static_text_preference(ptr noundef %5, ptr noundef nonnull @.str.297, ptr noundef nonnull @.str.298, ptr noundef nonnull @.str.299)
  %6 = load i32, ptr @proto_elf, align 4
  %7 = tail call ptr @expert_register_protocol(i32 noundef %6)
  tail call void @expert_register_field_array(ptr noundef %7, ptr noundef nonnull @proto_register_elf.ei, i32 noundef 4)
  ret void
}